(dp1
S'output'
p2
S"<class 'urllib2.HTTPError'> HTTP Error 404: NOT FOUND"
p3
sS'layer'
p4
S'C:\\projects\\web2py\\applications\\bootcamp_template\\controllers/default.py'
p5
sS'code'
p6
S'def index():\n    return dict()\n\n\ndef get_data():\n    import pandas as pd\n    #df = pd.read_csv(URL("static","Video_Games_Sales_as_at_22_Dec_2016.csv",host=True))#"http://127.0.0.1:8000/bootcamp_template/private/data/dataset_1/Video_Games_Sales_as_at_22_Dec_2016.csv");\n    df = pd.read_csv(URL("private","data/dataset_1/Video_Games_Sales_as_at_22_Dec_2016.csv",host=True))#"http://127.0.0.1:8000/bootcamp_template/private/data/dataset_1/Video_Games_Sales_as_at_22_Dec_2016.csv");\n    print df\n    return \'Axios is initialized\'\n\n\ndef user():\n    """\n    exposes:\n    http://..../[app]/default/user/login\n    http://..../[app]/default/user/logout\n    http://..../[app]/default/user/register\n    http://..../[app]/default/user/profile\n    http://..../[app]/default/user/retrieve_password\n    http://..../[app]/default/user/change_password\n    http://..../[app]/default/user/bulk_register\n    use @auth.requires_login()\n        @auth.requires_membership(\'group name\')\n        @auth.requires_permission(\'read\',\'table name\',record_id)\n    to decorate functions that need access control\n    also notice there is http://..../[app]/appadmin/manage/auth to allow administrator to manage users\n    """\n    return dict(form=auth())\n\n\n@cache.action()\ndef download():\n    """\n    allows downloading of uploaded files\n    http://..../[app]/default/download/[filename]\n    """\n    return response.download(request, db)\n\n\ndef call():\n    """\n    exposes services. for example:\n    http://..../[app]/default/call/jsonrpc\n    decorate with @services.jsonrpc the functions to expose\n    supports xml, json, xmlrpc, jsonrpc, amfrpc, rss, csv\n    """\n    return service()\n\n\n\nresponse._vars=response._caller(get_data)\n'
p7
sS'snapshot'
p8
(dp9
sS'traceback'
p10
S'Traceback (most recent call last):\n  File "C:\\projects\\web2py\\gluon\\restricted.py", line 227, in restricted\n    exec ccode in environment\n  File "C:\\projects\\web2py\\applications\\bootcamp_template\\controllers/default.py", line 52, in <module>\n  File "C:\\projects\\web2py\\gluon\\globals.py", line 417, in <lambda>\n    self._caller = lambda f: f()\n  File "C:\\projects\\web2py\\applications\\bootcamp_template\\controllers/default.py", line 8, in get_data\n    df = pd.read_csv(URL("private","data/dataset_1/Video_Games_Sales_as_at_22_Dec_2016.csv",host=True))#"http://127.0.0.1:8000/bootcamp_template/private/data/dataset_1/Video_Games_Sales_as_at_22_Dec_2016.csv");\n  File "C:\\Program Files\\Anaconda2\\lib\\site-packages\\pandas\\io\\parsers.py", line 562, in parser_f\n    return _read(filepath_or_buffer, kwds)\n  File "C:\\Program Files\\Anaconda2\\lib\\site-packages\\pandas\\io\\parsers.py", line 301, in _read\n    compression=kwds.get(\'compression\', None))\n  File "C:\\Program Files\\Anaconda2\\lib\\site-packages\\pandas\\io\\common.py", line 308, in get_filepath_or_buffer\n    req = _urlopen(str(filepath_or_buffer))\n  File "C:\\Program Files\\Anaconda2\\lib\\urllib2.py", line 154, in urlopen\n    return opener.open(url, data, timeout)\n  File "C:\\Program Files\\Anaconda2\\lib\\urllib2.py", line 435, in open\n    response = meth(req, response)\n  File "C:\\Program Files\\Anaconda2\\lib\\urllib2.py", line 548, in http_response\n    \'http\', request, response, code, msg, hdrs)\n  File "C:\\Program Files\\Anaconda2\\lib\\urllib2.py", line 473, in error\n    return self._call_chain(*args)\n  File "C:\\Program Files\\Anaconda2\\lib\\urllib2.py", line 407, in _call_chain\n    result = func(*args)\n  File "C:\\Program Files\\Anaconda2\\lib\\urllib2.py", line 556, in http_error_default\n    raise HTTPError(req.get_full_url(), code, msg, hdrs, fp)\nHTTPError: HTTP Error 404: NOT FOUND\n'
p11
s.